; Function Attrs: mustprogress uwtable
define internal void @_ZN11opencv_testL39gtest_MatType_Length_dot_EvalGenerator_Ev(ptr dead_on_unwind noalias writable sret(%"class.testing::internal::ParamGenerator") align 8 %0) #4 {
  %2 = alloca %"class.testing::internal::CartesianProductHolder2", align 4
  call void @llvm.lifetime.start.p0(i64 48, ptr nonnull %2) #29
  store i32 0, ptr %2, align 4, !tbaa !70, !alias.scope !72
  %3 = getelementptr inbounds nuw i8, ptr %2, i64 4
  store i32 1, ptr %3, align 4, !tbaa !75, !alias.scope !72
  %4 = getelementptr inbounds nuw i8, ptr %2, i64 8
  store i32 3, ptr %4, align 4, !tbaa !76, !alias.scope !72
  %5 = getelementptr inbounds nuw i8, ptr %2, i64 12
  store i32 2, ptr %5, align 4, !tbaa !77, !alias.scope !72
  %6 = getelementptr inbounds nuw i8, ptr %2, i64 16
  store i32 4, ptr %6, align 4, !tbaa !78, !alias.scope !72
  %7 = getelementptr inbounds nuw i8, ptr %2, i64 20
  store i32 5, ptr %7, align 4, !tbaa !79, !alias.scope !72
  %8 = getelementptr inbounds nuw i8, ptr %2, i64 24
  store i32 32, ptr %8, align 4, !tbaa !70, !alias.scope !72
  %9 = getelementptr inbounds nuw i8, ptr %2, i64 28
  store i32 64, ptr %9, align 4, !tbaa !75, !alias.scope !72
  %10 = getelementptr inbounds nuw i8, ptr %2, i64 32
  store i32 128, ptr %10, align 4, !tbaa !76, !alias.scope !72
  %11 = getelementptr inbounds nuw i8, ptr %2, i64 36
  store i32 256, ptr %11, align 4, !tbaa !77, !alias.scope !72
  %12 = getelementptr inbounds nuw i8, ptr %2, i64 40
  store i32 512, ptr %12, align 4, !tbaa !78, !alias.scope !72
  %13 = getelementptr inbounds nuw i8, ptr %2, i64 44
  store i32 1024, ptr %13, align 4, !tbaa !79, !alias.scope !72
  call void @_ZNK7testing8internal23CartesianProductHolder2INS0_11ValueArray6IiiiiiiEES3_EcvNS0_14ParamGeneratorISt5tupleIJT_T0_EEEEIN4perf7MatTypeEiEEv(ptr dead_on_unwind writable sret(%"class.testing::internal::ParamGenerator") align 8 %0, ptr noundef nonnull align 4 dereferenceable(48) %2)
  call void @llvm.lifetime.end.p0(i64 48, ptr nonnull %2) #29
  ret void
}